target datalayout = "e-m:e-p270:32:32-p271:32:32-p272:64:64-i64:64-i128:128-f80:128-n8:16:32:64-S128"
target triple = "x86_64-pc-linux-gnu"

%struct.lexbor_avl = type { ptr, ptr }
%struct.lexbor_avl_node = type { i64, i16, ptr, ptr, ptr, ptr }

; Function Attrs: nounwind uwtable
define hidden ptr @lexbor_avl_node_make(ptr noundef %0, i64 noundef %1, ptr noundef %2) #0 {
  %4 = alloca ptr, align 8
  %5 = alloca ptr, align 8
  %6 = alloca i64, align 8
  %7 = alloca ptr, align 8
  %8 = alloca ptr, align 8
  store ptr %0, ptr %5, align 8
  store i64 %1, ptr %6, align 8
  store ptr %2, ptr %7, align 8
  %9 = load ptr, ptr %5, align 8
  %10 = getelementptr inbounds %struct.lexbor_avl, ptr %9, i32 0, i32 0
  %11 = load ptr, ptr %10, align 8
  %12 = call ptr @lexbor_dobject_calloc(ptr noundef %11)
  store ptr %12, ptr %8, align 8
  %13 = load ptr, ptr %8, align 8
  %14 = icmp eq ptr %13, null
  br i1 %14, label %15, label %16

15:                                               ; preds = %3
  store ptr null, ptr %4, align 8
  br label %24

16:                                               ; preds = %3
  %17 = load i64, ptr %6, align 8
  %18 = load ptr, ptr %8, align 8
  %19 = getelementptr inbounds %struct.lexbor_avl_node, ptr %18, i32 0, i32 0
  store i64 %17, ptr %19, align 8
  %20 = load ptr, ptr %7, align 8
  %21 = load ptr, ptr %8, align 8
  %22 = getelementptr inbounds %struct.lexbor_avl_node, ptr %21, i32 0, i32 2
  store ptr %20, ptr %22, align 8
  %23 = load ptr, ptr %8, align 8
  store ptr %23, ptr %4, align 8
  br label %24

24:                                               ; preds = %16, %15
  %25 = load ptr, ptr %4, align 8
  ret ptr %25
}

; Function Attrs: nounwind uwtable
define hidden ptr @lexbor_avl_insert(ptr noundef %0, ptr noundef %1, i64 noundef %2, ptr noundef %3) #0 {
  %5 = alloca ptr, align 8
  %6 = alloca ptr, align 8
  %7 = alloca ptr, align 8
  %8 = alloca i64, align 8
  %9 = alloca ptr, align 8
  %10 = alloca ptr, align 8
  %11 = alloca ptr, align 8
  store ptr %0, ptr %6, align 8
  store ptr %1, ptr %7, align 8
  store i64 %2, ptr %8, align 8
  store ptr %3, ptr %9, align 8
  %12 = load ptr, ptr %7, align 8
  %13 = load ptr, ptr %12, align 8
  %14 = icmp eq ptr %13, null
  br i1 %14, label %15, label %23

15:                                               ; preds = %4
  %16 = load ptr, ptr %6, align 8
  %17 = load i64, ptr %8, align 8
  %18 = load ptr, ptr %9, align 8
  %19 = call ptr @lexbor_avl_node_make(ptr noundef %16, i64 noundef %17, ptr noundef %18)
  %20 = load ptr, ptr %7, align 8
  store ptr %19, ptr %20, align 8
  %21 = load ptr, ptr %7, align 8
  %22 = load ptr, ptr %21, align 8
  store ptr %22, ptr %5, align 8
  br label %105

23:                                               ; preds = %4
  %24 = load ptr, ptr %7, align 8
  %25 = load ptr, ptr %24, align 8
  store ptr %25, ptr %10, align 8
  %26 = load ptr, ptr %6, align 8
  %27 = getelementptr inbounds %struct.lexbor_avl, ptr %26, i32 0, i32 0
  %28 = load ptr, ptr %27, align 8
  %29 = call ptr @lexbor_dobject_calloc(ptr noundef %28)
  store ptr %29, ptr %11, align 8
  br label %30

30:                                               ; preds = %94, %23
  %31 = load i64, ptr %8, align 8
  %32 = load ptr, ptr %10, align 8
  %33 = getelementptr inbounds %struct.lexbor_avl_node, ptr %32, i32 0, i32 0
  %34 = load i64, ptr %33, align 8
  %35 = icmp eq i64 %31, %34
  br i1 %35, label %36, label %41

36:                                               ; preds = %30
  %37 = load ptr, ptr %9, align 8
  %38 = load ptr, ptr %10, align 8
  %39 = getelementptr inbounds %struct.lexbor_avl_node, ptr %38, i32 0, i32 2
  store ptr %37, ptr %39, align 8
  %40 = load ptr, ptr %10, align 8
  store ptr %40, ptr %5, align 8
  br label %105

41:                                               ; preds = %30
  %42 = load i64, ptr %8, align 8
  %43 = load ptr, ptr %10, align 8
  %44 = getelementptr inbounds %struct.lexbor_avl_node, ptr %43, i32 0, i32 0
  %45 = load i64, ptr %44, align 8
  %46 = icmp ult i64 %42, %45
  br i1 %46, label %47, label %70

47:                                               ; preds = %41
  %48 = load ptr, ptr %10, align 8
  %49 = getelementptr inbounds %struct.lexbor_avl_node, ptr %48, i32 0, i32 3
  %50 = load ptr, ptr %49, align 8
  %51 = icmp eq ptr %50, null
  br i1 %51, label %52, label %66

52:                                               ; preds = %47
  %53 = load ptr, ptr %11, align 8
  %54 = load ptr, ptr %10, align 8
  %55 = getelementptr inbounds %struct.lexbor_avl_node, ptr %54, i32 0, i32 3
  store ptr %53, ptr %55, align 8
  %56 = load ptr, ptr %10, align 8
  %57 = load ptr, ptr %11, align 8
  %58 = getelementptr inbounds %struct.lexbor_avl_node, ptr %57, i32 0, i32 5
  store ptr %56, ptr %58, align 8
  %59 = load i64, ptr %8, align 8
  %60 = load ptr, ptr %11, align 8
  %61 = getelementptr inbounds %struct.lexbor_avl_node, ptr %60, i32 0, i32 0
  store i64 %59, ptr %61, align 8
  %62 = load ptr, ptr %9, align 8
  %63 = load ptr, ptr %11, align 8
  %64 = getelementptr inbounds %struct.lexbor_avl_node, ptr %63, i32 0, i32 2
  store ptr %62, ptr %64, align 8
  %65 = load ptr, ptr %11, align 8
  store ptr %65, ptr %10, align 8
  br label %95

66:                                               ; preds = %47
  %67 = load ptr, ptr %10, align 8
  %68 = getelementptr inbounds %struct.lexbor_avl_node, ptr %67, i32 0, i32 3
  %69 = load ptr, ptr %68, align 8
  store ptr %69, ptr %10, align 8
  br label %93

70:                                               ; preds = %41
  %71 = load ptr, ptr %10, align 8
  %72 = getelementptr inbounds %struct.lexbor_avl_node, ptr %71, i32 0, i32 4
  %73 = load ptr, ptr %72, align 8
  %74 = icmp eq ptr %73, null
  br i1 %74, label %75, label %89

75:                                               ; preds = %70
  %76 = load ptr, ptr %11, align 8
  %77 = load ptr, ptr %10, align 8
  %78 = getelementptr inbounds %struct.lexbor_avl_node, ptr %77, i32 0, i32 4
  store ptr %76, ptr %78, align 8
  %79 = load ptr, ptr %10, align 8
  %80 = load ptr, ptr %11, align 8
  %81 = getelementptr inbounds %struct.lexbor_avl_node, ptr %80, i32 0, i32 5
  store ptr %79, ptr %81, align 8
  %82 = load i64, ptr %8, align 8
  %83 = load ptr, ptr %11, align 8
  %84 = getelementptr inbounds %struct.lexbor_avl_node, ptr %83, i32 0, i32 0
  store i64 %82, ptr %84, align 8
  %85 = load ptr, ptr %9, align 8
  %86 = load ptr, ptr %11, align 8
  %87 = getelementptr inbounds %struct.lexbor_avl_node, ptr %86, i32 0, i32 2
  store ptr %85, ptr %87, align 8
  %88 = load ptr, ptr %11, align 8
  store ptr %88, ptr %10, align 8
  br label %95

89:                                               ; preds = %70
  %90 = load ptr, ptr %10, align 8
  %91 = getelementptr inbounds %struct.lexbor_avl_node, ptr %90, i32 0, i32 4
  %92 = load ptr, ptr %91, align 8
  store ptr %92, ptr %10, align 8
  br label %93

93:                                               ; preds = %89, %66
  br label %94

94:                                               ; preds = %93
  br label %30

95:                                               ; preds = %75, %52
  br label %96

96:                                               ; preds = %99, %95
  %97 = load ptr, ptr %10, align 8
  %98 = icmp ne ptr %97, null
  br i1 %98, label %99, label %103

99:                                               ; preds = %96
  %100 = load ptr, ptr %10, align 8
  %101 = load ptr, ptr %7, align 8
  %102 = call ptr @lexbor_avl_node_balance(ptr noundef %100, ptr noundef %101)
  store ptr %102, ptr %10, align 8
  br label %96

103:                                              ; preds = %96
  %104 = load ptr, ptr %11, align 8
  store ptr %104, ptr %5, align 8
  br label %105

105:                                              ; preds = %103, %36, %15
  %106 = load ptr, ptr %5, align 8
  ret ptr %106
}