; Function Attrs: nounwind uwtable
define hidden ptr @lexbor_avl_insert(ptr nocapture noundef readonly %0, ptr nocapture noundef %1, i64 noundef %2, ptr noundef %3) local_unnamed_addr #0 {
  %5 = load ptr, ptr %1, align 8
  %6 = icmp eq ptr %5, null
  %7 = load ptr, ptr %0, align 8
  %8 = tail call ptr @lexbor_dobject_calloc(ptr noundef %7) #8
  br i1 %6, label %9, label %13

9:                                                ; preds = %4
  %10 = icmp eq ptr %8, null
  br i1 %10, label %lexbor_avl_node_make.exit, label %11

11:                                               ; preds = %9
  store i64 %2, ptr %8, align 8
  %12 = getelementptr inbounds i8, ptr %8, i64 16
  store ptr %3, ptr %12, align 8
  br label %lexbor_avl_node_make.exit

lexbor_avl_node_make.exit:                        ; preds = %9, %11
  store ptr %8, ptr %1, align 8
  br label %.loopexit

13:                                               ; preds = %4
  %14 = load i64, ptr %5, align 8
  %15 = icmp eq i64 %14, %2
  br i1 %15, label %._crit_edge, label %.lr.ph

._crit_edge:                                      ; preds = %27, %13
  %.041.lcssa = phi ptr [ %5, %13 ], [ %.1, %27 ]
  %16 = getelementptr inbounds i8, ptr %.041.lcssa, i64 16
  store ptr %3, ptr %16, align 8
  br label %.loopexit

.lr.ph:                                           ; preds = %13, %27
  %17 = phi i64 [ %28, %27 ], [ %14, %13 ]
  %.04152 = phi ptr [ %.1, %27 ], [ %5, %13 ]
  %18 = icmp ugt i64 %17, %2
  br i1 %18, label %19, label %23

19:                                               ; preds = %.lr.ph
  %20 = getelementptr inbounds i8, ptr %.04152, i64 24
  %21 = load ptr, ptr %20, align 8
  %22 = icmp eq ptr %21, null
  br i1 %22, label %.lr.ph56.preheader, label %27

23:                                               ; preds = %.lr.ph
  %24 = getelementptr inbounds i8, ptr %.04152, i64 32
  %25 = load ptr, ptr %24, align 8
  %26 = icmp eq ptr %25, null
  br i1 %26, label %.lr.ph56.preheader, label %27

27:                                               ; preds = %23, %19
  %.1 = phi ptr [ %21, %19 ], [ %25, %23 ]
  %28 = load i64, ptr %.1, align 8
  %29 = icmp eq i64 %28, %2
  br i1 %29, label %._crit_edge, label %.lr.ph

.lr.ph56.preheader:                               ; preds = %23, %19
  %.sink67 = phi i64 [ 24, %19 ], [ 32, %23 ]
  %30 = getelementptr inbounds i8, ptr %.04152, i64 %.sink67
  store ptr %8, ptr %30, align 8
  %31 = getelementptr inbounds i8, ptr %8, i64 40
  store ptr %.04152, ptr %31, align 8
  store i64 %2, ptr %8, align 8
  %32 = getelementptr inbounds i8, ptr %8, i64 16
  store ptr %3, ptr %32, align 8
  br label %.lr.ph56

.lr.ph56:                                         ; preds = %.lr.ph56.preheader, %.lr.ph56
  %.354 = phi ptr [ %33, %.lr.ph56 ], [ %8, %.lr.ph56.preheader ]
  %33 = tail call fastcc ptr @lexbor_avl_node_balance(ptr noundef nonnull %.354, ptr noundef nonnull %1)
  %.not = icmp eq ptr %33, null
  br i1 %.not, label %.loopexit, label %.lr.ph56

.loopexit:                                        ; preds = %.lr.ph56, %._crit_edge, %lexbor_avl_node_make.exit
  %.0 = phi ptr [ %8, %lexbor_avl_node_make.exit ], [ %.041.lcssa, %._crit_edge ], [ %8, %.lr.ph56 ]
  ret ptr %.0
}